; Function Attrs: nounwind uwtable
define internal fastcc noundef ptr @make_list_or_alt(i32 noundef range(i32 7, 9) %0, i32 noundef %1, ptr noundef nonnull readonly captures(none) %2) unnamed_addr #2 {
  %4 = icmp slt i32 %1, 1
  br i1 %4, label %.critedge, label %5

5:                                                ; preds = %3
  %6 = icmp eq i32 %1, 1
  %calloc.i = tail call noalias noundef dereferenceable_or_null(72) ptr @calloc(i64 1, i64 72)
  %7 = icmp eq ptr %calloc.i, null
  br i1 %6, label %8, label %12

8:                                                ; preds = %5
  br i1 %7, label %.critedge, label %9

9:                                                ; preds = %8
  store i32 %0, ptr %calloc.i, align 8, !tbaa !10
  %10 = load ptr, ptr %2, align 8, !tbaa !112
  %11 = getelementptr inbounds nuw i8, ptr %calloc.i, i64 16
  store ptr %10, ptr %11, align 8, !tbaa !10
  br label %.critedge

12:                                               ; preds = %5
  br i1 %7, label %.critedge, label %13

13:                                               ; preds = %12
  %14 = add nsw i32 %1, -1
  %15 = getelementptr inbounds nuw i8, ptr %2, i64 8
  %16 = tail call fastcc ptr @make_list_or_alt(i32 noundef %0, i32 noundef %14, ptr noundef %15)
  %17 = icmp eq ptr %16, null
  br i1 %17, label %onig_node_free.exit, label %18

onig_node_free.exit:                              ; preds = %13
  tail call fastcc void @node_free_body(ptr noundef nonnull %calloc.i)
  tail call void @free(ptr noundef nonnull %calloc.i) #25
  br label %.critedge

18:                                               ; preds = %13
  store i32 %0, ptr %calloc.i, align 8, !tbaa !10
  %19 = load ptr, ptr %2, align 8, !tbaa !112
  %20 = getelementptr inbounds nuw i8, ptr %calloc.i, i64 16
  store ptr %19, ptr %20, align 8, !tbaa !10
  %21 = getelementptr inbounds nuw i8, ptr %calloc.i, i64 24
  store ptr %16, ptr %21, align 8, !tbaa !10
  br label %.critedge

.critedge:                                        ; preds = %onig_node_free.exit, %12, %9, %18, %8, %3
  %.0 = phi ptr [ null, %3 ], [ null, %8 ], [ %calloc.i, %9 ], [ %calloc.i, %18 ], [ null, %12 ], [ null, %onig_node_free.exit ]
  ret ptr %.0
}